target datalayout = "e-m:e-p270:32:32-p271:32:32-p272:64:64-i64:64-i128:128-f80:128-n8:16:32:64-S128"
target triple = "x86_64-pc-linux-gnu"

%struct.SDL_VideoDevice = type { ptr, ptr, ptr, ptr, ptr, ptr, ptr, ptr, ptr, ptr, ptr, ptr, ptr, ptr, ptr, ptr, ptr, ptr, ptr, ptr, ptr, ptr, ptr, ptr, ptr, ptr, ptr, ptr, ptr, ptr, ptr, ptr, ptr, ptr, ptr, ptr, ptr, ptr, ptr, ptr, ptr, ptr, ptr, ptr, ptr, ptr, ptr, ptr, ptr, ptr, ptr, ptr, ptr, ptr, ptr, ptr, ptr, ptr, ptr, ptr, ptr, ptr, ptr, ptr, ptr, ptr, ptr, ptr, ptr, ptr, ptr, ptr, ptr, ptr, ptr, ptr, ptr, ptr, ptr, ptr, ptr, ptr, ptr, ptr, ptr, ptr, ptr, ptr, ptr, ptr, ptr, ptr, ptr, ptr, ptr, ptr, ptr, i64, i8, i8, i8, ptr, i32, ptr, %struct.SDL_Rect, ptr, ptr, i32, ptr, ptr, ptr, ptr, i64, ptr, i8, i32, i32, %struct.anon, ptr, ptr, ptr, ptr, ptr, ptr, %struct.SDL_AtomicInt, %struct.SDL_AtomicInt, i8, %struct.anon.0, ptr, ptr, ptr, ptr, ptr }
%struct.SDL_Rect = type { i32, i32, i32, i32 }
%struct.anon = type { i32, i32, i32, i32, i32, i32, i32, i32, i32, i32, i32, i32, i32, i32, i32, i32, i32, i32, i32, i32, i32, i32, i32, i32, i32, i32, i32, i32, i32, [256 x i8], ptr }
%struct.SDL_AtomicInt = type { i32 }
%struct.anon.0 = type { ptr, ptr, i32, [256 x i8], ptr }
%struct.SDL_VideoData = type { ptr, ptr, i32, ptr, i64, i32, ptr, i32, i64, i64, %struct.X11_ClipboardData, %struct.X11_ClipboardData, ptr, i64, %struct.X11_SettingsData, i8, %struct.anon.1, [256 x i32], i8, i8, i8, i64, i8, %struct.SDL_Point, i32, ptr, i32, i8, i32, %struct.anon.2, i8, i64, ptr, ptr, i8, i8, i8 }
%struct.X11_ClipboardData = type { ptr, ptr, ptr, i64, i32 }
%struct.X11_SettingsData = type { ptr }
%struct.anon.1 = type { i64, i64, i64, i64, i64, i64, i64, i64, i64, i64, i64, i64, i64, i64, i64, i64, i64, i64, i64, i64, i64, i64, i64, i64, i64, i64, i64, i64, i64, i64, i64, i64, i64, i64, i64, i64, i64, i64, i64, i64, i64, i64, i64, i64, i64, i64, i64, i64, i64, i64, i64, i64, i64 }
%struct.SDL_Point = type { i32, i32 }
%struct.anon.2 = type { ptr, i32, i32, i32, i16, i32, i32 }
%struct.VkXcbSurfaceCreateInfoKHR = type { i32, ptr, i32, ptr, i32 }
%struct.VkXlibSurfaceCreateInfoKHR = type { i32, ptr, i32, ptr, i64 }
%struct.SDL_Window = type { i32, ptr, ptr, i32, i32, i32, i32, i32, i32, i32, i32, float, float, i32, i32, i64, i64, float, i8, i8, i32, i32, %struct.SDL_Rect, %struct.SDL_Rect, %struct.SDL_Rect, i8, i8, i8, %struct.SDL_DisplayMode, %struct.SDL_DisplayMode, %struct.SDL_HDROutputProperties, float, ptr, i8, i8, i8, i8, i8, i8, i8, i8, i8, i32, i32, i32, i32, %struct.SDL_Rect, i32, i8, %struct.SDL_Rect, i32, %struct.SDL_Rect, ptr, ptr, i32, float, i32, i32, ptr, ptr, ptr, ptr, ptr, ptr, ptr, ptr, ptr }
%struct.SDL_DisplayMode = type { i32, i32, i32, i32, float, float, i32, i32, ptr }
%struct.SDL_HDROutputProperties = type { float, float }
%struct.SDL_WindowData = type { ptr, i64, ptr, i64, i8, %struct.XShmSegmentInfo, ptr, ptr, ptr, i8, i32, i32, i32, i32, i8, i8, i8, i64, i32, i64, i8, %struct.SDL_Point, %struct.XConfigureEvent, %struct.XConfigureEvent, ptr, i64, i64, i64, i8, i64, ptr, i8, [4 x i64], %struct.SDL_Rect, i64, %struct._XSyncValue, i8, %struct.SDL_Rect, %struct.SDL_DisplayMode, i32, i32, i8, i8, i8, i8, i8, i8, i8, i8, i32, %struct.XPoint, ptr, ptr, i32, i32, i8 }
%struct.XShmSegmentInfo = type { i64, i32, ptr, i32 }
%struct.XConfigureEvent = type { i32, i64, i32, ptr, i64, i64, i32, i32, i32, i32, i32, i64, i32 }
%struct._XSyncValue = type { i32, i32 }
%struct.XPoint = type { i16, i16 }

@.str.13 = private unnamed_addr constant [21 x i8] c"Vulkan is not loaded\00", align 1
@.str.14 = private unnamed_addr constant [22 x i8] c"vkCreateXcbSurfaceKHR\00", align 1
@.str.15 = private unnamed_addr constant [68 x i8] c"VK_KHR_xcb_surface extension is not enabled in the Vulkan instance.\00", align 1
@.str.16 = private unnamed_addr constant [25 x i8] c"XGetXCBConnection failed\00", align 1
@.str.17 = private unnamed_addr constant [33 x i8] c"vkCreateXcbSurfaceKHR failed: %s\00", align 1
@.str.18 = private unnamed_addr constant [23 x i8] c"vkCreateXlibSurfaceKHR\00", align 1
@.str.19 = private unnamed_addr constant [69 x i8] c"VK_KHR_xlib_surface extension is not enabled in the Vulkan instance.\00", align 1
@.str.20 = private unnamed_addr constant [34 x i8] c"vkCreateXlibSurfaceKHR failed: %s\00", align 1

; Function Attrs: nounwind uwtable
define hidden zeroext i1 @X11_Vulkan_CreateSurface(ptr noundef %0, ptr noundef %1, ptr noundef %2, ptr noundef %3, ptr noundef %4) #0 {
  %6 = alloca i1, align 1
  %7 = alloca ptr, align 8
  %8 = alloca ptr, align 8
  %9 = alloca ptr, align 8
  %10 = alloca ptr, align 8
  %11 = alloca ptr, align 8
  %12 = alloca ptr, align 8
  %13 = alloca ptr, align 8
  %14 = alloca ptr, align 8
  %15 = alloca i32, align 4
  %16 = alloca ptr, align 8
  %17 = alloca %struct.VkXcbSurfaceCreateInfoKHR, align 8
  %18 = alloca i32, align 4
  %19 = alloca ptr, align 8
  %20 = alloca %struct.VkXlibSurfaceCreateInfoKHR, align 8
  %21 = alloca i32, align 4
  store ptr %0, ptr %7, align 8
  store ptr %1, ptr %8, align 8
  store ptr %2, ptr %9, align 8
  store ptr %3, ptr %10, align 8
  store ptr %4, ptr %11, align 8
  call void @llvm.lifetime.start.p0(i64 8, ptr %12) #4
  %22 = load ptr, ptr %7, align 8
  %23 = getelementptr inbounds nuw %struct.SDL_VideoDevice, ptr %22, i32 0, i32 128
  %24 = load ptr, ptr %23, align 8
  store ptr %24, ptr %12, align 8
  call void @llvm.lifetime.start.p0(i64 8, ptr %13) #4
  %25 = load ptr, ptr %8, align 8
  %26 = getelementptr inbounds nuw %struct.SDL_Window, ptr %25, i32 0, i32 59
  %27 = load ptr, ptr %26, align 8
  store ptr %27, ptr %13, align 8
  call void @llvm.lifetime.start.p0(i64 8, ptr %14) #4
  %28 = load ptr, ptr %7, align 8
  %29 = getelementptr inbounds nuw %struct.SDL_VideoDevice, ptr %28, i32 0, i32 127
  %30 = getelementptr inbounds nuw %struct.anon.0, ptr %29, i32 0, i32 4
  %31 = load ptr, ptr %30, align 8
  %32 = icmp ne ptr %31, null
  br i1 %32, label %35, label %33

33:                                               ; preds = %5
  %34 = call zeroext i1 (ptr, ...) @SDL_SetError_REAL(ptr noundef @.str.13)
  store i1 %34, ptr %6, align 1
  store i32 1, ptr %15, align 4
  br label %124

35:                                               ; preds = %5
  %36 = load ptr, ptr %7, align 8
  %37 = getelementptr inbounds nuw %struct.SDL_VideoDevice, ptr %36, i32 0, i32 127
  %38 = getelementptr inbounds nuw %struct.anon.0, ptr %37, i32 0, i32 0
  %39 = load ptr, ptr %38, align 8
  store ptr %39, ptr %14, align 8
  %40 = load ptr, ptr %12, align 8
  %41 = getelementptr inbounds nuw %struct.SDL_VideoData, ptr %40, i32 0, i32 32
  %42 = load ptr, ptr %41, align 8
  %43 = icmp ne ptr %42, null
  br i1 %43, label %44, label %88

44:                                               ; preds = %35
  call void @llvm.lifetime.start.p0(i64 8, ptr %16) #4
  %45 = load ptr, ptr %14, align 8
  %46 = load ptr, ptr %9, align 8
  %47 = call ptr %45(ptr noundef %46, ptr noundef @.str.14)
  store ptr %47, ptr %16, align 8
  call void @llvm.lifetime.start.p0(i64 40, ptr %17) #4
  call void @llvm.lifetime.start.p0(i64 4, ptr %18) #4
  %48 = load ptr, ptr %16, align 8
  %49 = icmp ne ptr %48, null
  br i1 %49, label %52, label %50

50:                                               ; preds = %44
  %51 = call zeroext i1 (ptr, ...) @SDL_SetError_REAL(ptr noundef @.str.15)
  store i1 %51, ptr %6, align 1
  store i32 1, ptr %15, align 4
  br label %85

52:                                               ; preds = %44
  call void @llvm.memset.p0.i64(ptr align 8 %17, i8 0, i64 40, i1 false)
  %53 = getelementptr inbounds nuw %struct.VkXcbSurfaceCreateInfoKHR, ptr %17, i32 0, i32 0
  store i32 1000005000, ptr %53, align 8
  %54 = load ptr, ptr %12, align 8
  %55 = getelementptr inbounds nuw %struct.SDL_VideoData, ptr %54, i32 0, i32 33
  %56 = load ptr, ptr %55, align 8
  %57 = load ptr, ptr %12, align 8
  %58 = getelementptr inbounds nuw %struct.SDL_VideoData, ptr %57, i32 0, i32 0
  %59 = load ptr, ptr %58, align 8
  %60 = call ptr %56(ptr noundef %59)
  %61 = getelementptr inbounds nuw %struct.VkXcbSurfaceCreateInfoKHR, ptr %17, i32 0, i32 3
  store ptr %60, ptr %61, align 8
  %62 = getelementptr inbounds nuw %struct.VkXcbSurfaceCreateInfoKHR, ptr %17, i32 0, i32 3
  %63 = load ptr, ptr %62, align 8
  %64 = icmp ne ptr %63, null
  br i1 %64, label %67, label %65

65:                                               ; preds = %52
  %66 = call zeroext i1 (ptr, ...) @SDL_SetError_REAL(ptr noundef @.str.16)
  store i1 %66, ptr %6, align 1
  store i32 1, ptr %15, align 4
  br label %85

67:                                               ; preds = %52
  %68 = load ptr, ptr %13, align 8
  %69 = getelementptr inbounds nuw %struct.SDL_WindowData, ptr %68, i32 0, i32 1
  %70 = load i64, ptr %69, align 8
  %71 = trunc i64 %70 to i32
  %72 = getelementptr inbounds nuw %struct.VkXcbSurfaceCreateInfoKHR, ptr %17, i32 0, i32 4
  store i32 %71, ptr %72, align 8
  %73 = load ptr, ptr %16, align 8
  %74 = load ptr, ptr %9, align 8
  %75 = load ptr, ptr %10, align 8
  %76 = load ptr, ptr %11, align 8
  %77 = call i32 %73(ptr noundef %74, ptr noundef %17, ptr noundef %75, ptr noundef %76)
  store i32 %77, ptr %18, align 4
  %78 = load i32, ptr %18, align 4
  %79 = icmp ne i32 %78, 0
  br i1 %79, label %80, label %84

80:                                               ; preds = %67
  %81 = load i32, ptr %18, align 4
  %82 = call ptr @SDL_Vulkan_GetResultString(i32 noundef %81)
  %83 = call zeroext i1 (ptr, ...) @SDL_SetError_REAL(ptr noundef @.str.17, ptr noundef %82)
  store i1 %83, ptr %6, align 1
  store i32 1, ptr %15, align 4
  br label %85

84:                                               ; preds = %67
  store i32 0, ptr %15, align 4
  br label %85

85:                                               ; preds = %84, %80, %65, %50
  call void @llvm.lifetime.end.p0(i64 4, ptr %18) #4
  call void @llvm.lifetime.end.p0(i64 40, ptr %17) #4
  call void @llvm.lifetime.end.p0(i64 8, ptr %16) #4
  %86 = load i32, ptr %15, align 4
  switch i32 %86, label %124 [
    i32 0, label %87
  ]

87:                                               ; preds = %85
  br label %123

88:                                               ; preds = %35
  call void @llvm.lifetime.start.p0(i64 8, ptr %19) #4
  %89 = load ptr, ptr %14, align 8
  %90 = load ptr, ptr %9, align 8
  %91 = call ptr %89(ptr noundef %90, ptr noundef @.str.18)
  store ptr %91, ptr %19, align 8
  call void @llvm.lifetime.start.p0(i64 40, ptr %20) #4
  call void @llvm.lifetime.start.p0(i64 4, ptr %21) #4
  %92 = load ptr, ptr %19, align 8
  %93 = icmp ne ptr %92, null
  br i1 %93, label %96, label %94

94:                                               ; preds = %88
  %95 = call zeroext i1 (ptr, ...) @SDL_SetError_REAL(ptr noundef @.str.19)
  store i1 %95, ptr %6, align 1
  store i32 1, ptr %15, align 4
  br label %120

96:                                               ; preds = %88
  call void @llvm.memset.p0.i64(ptr align 8 %20, i8 0, i64 40, i1 false)
  %97 = getelementptr inbounds nuw %struct.VkXlibSurfaceCreateInfoKHR, ptr %20, i32 0, i32 0
  store i32 1000004000, ptr %97, align 8
  %98 = load ptr, ptr %12, align 8
  %99 = getelementptr inbounds nuw %struct.SDL_VideoData, ptr %98, i32 0, i32 0
  %100 = load ptr, ptr %99, align 8
  %101 = getelementptr inbounds nuw %struct.VkXlibSurfaceCreateInfoKHR, ptr %20, i32 0, i32 3
  store ptr %100, ptr %101, align 8
  %102 = load ptr, ptr %13, align 8
  %103 = getelementptr inbounds nuw %struct.SDL_WindowData, ptr %102, i32 0, i32 1
  %104 = load i64, ptr %103, align 8
  %105 = trunc i64 %104 to i32
  %106 = zext i32 %105 to i64
  %107 = getelementptr inbounds nuw %struct.VkXlibSurfaceCreateInfoKHR, ptr %20, i32 0, i32 4
  store i64 %106, ptr %107, align 8
  %108 = load ptr, ptr %19, align 8
  %109 = load ptr, ptr %9, align 8
  %110 = load ptr, ptr %10, align 8
  %111 = load ptr, ptr %11, align 8
  %112 = call i32 %108(ptr noundef %109, ptr noundef %20, ptr noundef %110, ptr noundef %111)
  store i32 %112, ptr %21, align 4
  %113 = load i32, ptr %21, align 4
  %114 = icmp ne i32 %113, 0
  br i1 %114, label %115, label %119

115:                                              ; preds = %96
  %116 = load i32, ptr %21, align 4
  %117 = call ptr @SDL_Vulkan_GetResultString(i32 noundef %116)
  %118 = call zeroext i1 (ptr, ...) @SDL_SetError_REAL(ptr noundef @.str.20, ptr noundef %117)
  store i1 %118, ptr %6, align 1
  store i32 1, ptr %15, align 4
  br label %120

119:                                              ; preds = %96
  store i32 0, ptr %15, align 4
  br label %120

120:                                              ; preds = %119, %115, %94
  call void @llvm.lifetime.end.p0(i64 4, ptr %21) #4
  call void @llvm.lifetime.end.p0(i64 40, ptr %20) #4
  call void @llvm.lifetime.end.p0(i64 8, ptr %19) #4
  %121 = load i32, ptr %15, align 4
  switch i32 %121, label %124 [
    i32 0, label %122
  ]

122:                                              ; preds = %120
  br label %123

123:                                              ; preds = %122, %87
  store i1 true, ptr %6, align 1
  store i32 1, ptr %15, align 4
  br label %124

124:                                              ; preds = %123, %120, %85, %33
  call void @llvm.lifetime.end.p0(i64 8, ptr %14) #4
  call void @llvm.lifetime.end.p0(i64 8, ptr %13) #4
  call void @llvm.lifetime.end.p0(i64 8, ptr %12) #4
  %125 = load i1, ptr %6, align 1
  ret i1 %125
}