; Function Attrs: nounwind uwtable
define hidden zeroext i1 @X11_Vulkan_CreateSurface(ptr noundef readonly captures(none) %0, ptr noundef readonly captures(none) %1, ptr noundef %2, ptr noundef %3, ptr noundef %4) local_unnamed_addr #0 {
  %6 = alloca %struct.VkXcbSurfaceCreateInfoKHR, align 8
  %7 = alloca %struct.VkXlibSurfaceCreateInfoKHR, align 8
  %8 = getelementptr inbounds nuw i8, ptr %0, i64 1656
  %9 = load ptr, ptr %8, align 8
  %10 = getelementptr inbounds nuw i8, ptr %1, i64 392
  %11 = load ptr, ptr %10, align 8
  %12 = getelementptr inbounds nuw i8, ptr %0, i64 1648
  %13 = load ptr, ptr %12, align 8
  %.not = icmp eq ptr %13, null
  br i1 %.not, label %14, label %16

14:                                               ; preds = %5
  %15 = tail call zeroext i1 (ptr, ...) @SDL_SetError_REAL(ptr noundef nonnull @.str.13) #5
  br label %59

16:                                               ; preds = %5
  %17 = getelementptr inbounds nuw i8, ptr %0, i64 1368
  %18 = load ptr, ptr %17, align 8
  %19 = getelementptr inbounds nuw i8, ptr %9, i64 1744
  %20 = load ptr, ptr %19, align 8
  %.not37 = icmp eq ptr %20, null
  br i1 %.not37, label %43, label %21

21:                                               ; preds = %16
  %22 = tail call ptr %18(ptr noundef %2, ptr noundef nonnull @.str.14) #5
  call void @llvm.lifetime.start.p0(i64 40, ptr nonnull %6) #5
  %.not40 = icmp eq ptr %22, null
  br i1 %.not40, label %23, label %25

23:                                               ; preds = %21
  %24 = tail call zeroext i1 (ptr, ...) @SDL_SetError_REAL(ptr noundef nonnull @.str.15) #5
  br label %.thread

25:                                               ; preds = %21
  call void @llvm.memset.p0.i64(ptr noundef nonnull align 8 dereferenceable(40) %6, i8 0, i64 40, i1 false)
  store i32 1000005000, ptr %6, align 8
  %26 = getelementptr inbounds nuw i8, ptr %9, i64 1752
  %27 = load ptr, ptr %26, align 8
  %28 = load ptr, ptr %9, align 8
  %29 = tail call ptr %27(ptr noundef %28) #5
  %30 = getelementptr inbounds nuw i8, ptr %6, i64 24
  store ptr %29, ptr %30, align 8
  %.not41 = icmp eq ptr %29, null
  br i1 %.not41, label %31, label %33

31:                                               ; preds = %25
  %32 = tail call zeroext i1 (ptr, ...) @SDL_SetError_REAL(ptr noundef nonnull @.str.16) #5
  br label %.thread

33:                                               ; preds = %25
  %34 = getelementptr inbounds nuw i8, ptr %11, i64 8
  %35 = load i64, ptr %34, align 8
  %36 = trunc i64 %35 to i32
  %37 = getelementptr inbounds nuw i8, ptr %6, i64 32
  store i32 %36, ptr %37, align 8
  %38 = call i32 %22(ptr noundef %2, ptr noundef nonnull %6, ptr noundef %3, ptr noundef %4) #5
  %.not42 = icmp eq i32 %38, 0
  br i1 %.not42, label %42, label %39

39:                                               ; preds = %33
  %40 = call ptr @SDL_Vulkan_GetResultString(i32 noundef %38) #5
  %41 = call zeroext i1 (ptr, ...) @SDL_SetError_REAL(ptr noundef nonnull @.str.17, ptr noundef %40) #5
  br label %.thread

.thread:                                          ; preds = %39, %31, %23
  %.1.ph = phi i1 [ %24, %23 ], [ %32, %31 ], [ %41, %39 ]
  call void @llvm.lifetime.end.p0(i64 40, ptr nonnull %6) #5
  br label %59

42:                                               ; preds = %33
  call void @llvm.lifetime.end.p0(i64 40, ptr nonnull %6) #5
  br label %59

43:                                               ; preds = %16
  %44 = tail call ptr %18(ptr noundef %2, ptr noundef nonnull @.str.18) #5
  call void @llvm.lifetime.start.p0(i64 40, ptr nonnull %7) #5
  %.not38 = icmp eq ptr %44, null
  br i1 %.not38, label %45, label %47

45:                                               ; preds = %43
  %46 = tail call zeroext i1 (ptr, ...) @SDL_SetError_REAL(ptr noundef nonnull @.str.19) #5
  br label %.thread46

47:                                               ; preds = %43
  call void @llvm.memset.p0.i64(ptr noundef nonnull align 8 dereferenceable(40) %7, i8 0, i64 24, i1 false)
  store i32 1000004000, ptr %7, align 8
  %48 = load ptr, ptr %9, align 8
  %49 = getelementptr inbounds nuw i8, ptr %7, i64 24
  store ptr %48, ptr %49, align 8
  %50 = getelementptr inbounds nuw i8, ptr %11, i64 8
  %51 = load i64, ptr %50, align 8
  %52 = and i64 %51, 4294967295
  %53 = getelementptr inbounds nuw i8, ptr %7, i64 32
  store i64 %52, ptr %53, align 8
  %54 = call i32 %44(ptr noundef %2, ptr noundef nonnull %7, ptr noundef %3, ptr noundef %4) #5
  %.not39 = icmp eq i32 %54, 0
  br i1 %.not39, label %58, label %55

55:                                               ; preds = %47
  %56 = call ptr @SDL_Vulkan_GetResultString(i32 noundef %54) #5
  %57 = call zeroext i1 (ptr, ...) @SDL_SetError_REAL(ptr noundef nonnull @.str.20, ptr noundef %56) #5
  br label %.thread46

.thread46:                                        ; preds = %55, %45
  %.2.ph = phi i1 [ %46, %45 ], [ %57, %55 ]
  call void @llvm.lifetime.end.p0(i64 40, ptr nonnull %7) #5
  br label %59

58:                                               ; preds = %47
  call void @llvm.lifetime.end.p0(i64 40, ptr nonnull %7) #5
  br label %59

59:                                               ; preds = %42, %58, %.thread46, %.thread, %14
  %.0 = phi i1 [ %15, %14 ], [ %.1.ph, %.thread ], [ %.2.ph, %.thread46 ], [ true, %58 ], [ true, %42 ]
  ret i1 %.0
}